; Function Attrs: mustprogress uwtable
define void @_ZN19OpenColorIO_v2_5dev16GpuShaderCreator23addToFunctionShaderCodeEPKc(ptr noundef nonnull readonly align 8 captures(none) dereferenceable(16) %0, ptr noundef %1) unnamed_addr #0 align 2 {
  %.not = icmp eq ptr %1, null
  br i1 %.not, label %5, label %3

3:                                                ; preds = %2
  %4 = load i8, ptr %1, align 1, !tbaa !17
  %.not4 = icmp eq i8 %4, 0
  %spec.select = select i1 %.not4, ptr @.str, ptr %1
  br label %5

5:                                                ; preds = %3, %2
  %6 = phi ptr [ @.str, %2 ], [ %spec.select, %3 ]
  %7 = getelementptr inbounds nuw i8, ptr %0, i64 8
  %8 = load ptr, ptr %7, align 8, !tbaa !6
  %9 = tail call noundef i64 @strlen(ptr noundef nonnull dereferenceable(1) %6) #26
  %10 = getelementptr inbounds nuw i8, ptr %8, i64 320
  %11 = load i64, ptr %10, align 8, !tbaa !14
  %12 = sub i64 4611686018427387903, %11
  %13 = icmp ult i64 %12, %9
  br i1 %13, label %14, label %_ZNSt7__cxx1112basic_stringIcSt11char_traitsIcESaIcEEpLEPKc.exit

14:                                               ; preds = %5
  tail call void @_ZSt20__throw_length_errorPKc(ptr noundef nonnull @.str.20) #28
  unreachable

_ZNSt7__cxx1112basic_stringIcSt11char_traitsIcESaIcEEpLEPKc.exit: ; preds = %5
  %15 = getelementptr inbounds nuw i8, ptr %8, i64 312
  %16 = tail call noundef nonnull align 8 dereferenceable(32) ptr @_ZNSt7__cxx1112basic_stringIcSt11char_traitsIcESaIcEE9_M_appendEPKcm(ptr noundef nonnull align 8 dereferenceable(32) %15, ptr noundef nonnull %6, i64 noundef %9)
  ret void
}